target datalayout = "e-m:e-p270:32:32-p271:32:32-p272:64:64-i64:64-i128:128-f80:128-n8:16:32:64-S128"
target triple = "x86_64-pc-linux-gnu"

%struct.darktable_t = type { %struct.dt_codepath_t, i32, i32, ptr, ptr, ptr, ptr, ptr, ptr, ptr, ptr, ptr, ptr, ptr, ptr, ptr, ptr, ptr, ptr, ptr, ptr, ptr, ptr, ptr, ptr, ptr, ptr, ptr, ptr, ptr, [64 x %struct.dt_pthread_mutex_t], %struct.dt_pthread_mutex_t, %struct.dt_pthread_mutex_t, %struct.dt_pthread_mutex_t, %struct.dt_pthread_mutex_t, %struct.dt_pthread_mutex_t, ptr, ptr, ptr, ptr, ptr, ptr, ptr, ptr, ptr, ptr, ptr, ptr, ptr, %struct.dt_lua_state_t, ptr, double, ptr, i32, [47 x i32], i32, i32, ptr, ptr, %struct.dt_sys_resources_t, %struct.dt_backthumb_t, %struct.dt_gimp_t }
%struct.dt_codepath_t = type { i8, [3 x i8] }
%struct.dt_pthread_mutex_t = type { %union.pthread_mutex_t }
%union.pthread_mutex_t = type { %struct.__pthread_mutex_s }
%struct.__pthread_mutex_s = type { i32, i32, i32, i32, i32, i16, i16, %struct.__pthread_internal_list }
%struct.__pthread_internal_list = type { ptr, ptr }
%struct.dt_lua_state_t = type { i32 }
%struct.dt_sys_resources_t = type { i64, i64, ptr, ptr, i32 }
%struct.dt_backthumb_t = type { double, double, i32, i32, i32, i32 }
%struct.dt_gimp_t = type { i32, ptr, ptr, i32, i32 }
%struct.dt_selection_t = type { ptr, i32 }

@darktable = external global %struct.darktable_t, align 8
@.str.3 = private unnamed_addr constant [120 x i8] c"generated/home/dtcxzyw/WorkSpace/Projects/compilers/llvm-opt-benchmark/bench/darktable/darktable/src/common/selection.c\00", align 1
@.str.5 = private unnamed_addr constant [38 x i8] c"[sql] %s:%d, function %s(): exec \22%s\22\00", align 1
@stderr = external global ptr, align 8
@.str.7 = private unnamed_addr constant [53 x i8] c"sqlite3 error: %s:%d, function %s(), query \22%s\22: %s\0A\00", align 1
@.str.8 = private unnamed_addr constant [33 x i8] c"DELETE FROM main.selected_images\00", align 1
@__FUNCTION__.dt_selection_select_single = private unnamed_addr constant [27 x i8] c"dt_selection_select_single\00", align 1

; Function Attrs: nounwind uwtable
define void @dt_selection_select_single(ptr noundef %0, i32 noundef %1) #0 {
  %3 = alloca ptr, align 8
  %4 = alloca i32, align 4
  %5 = alloca i32, align 4
  store ptr %0, ptr %3, align 8, !tbaa !6
  store i32 %1, ptr %4, align 4, !tbaa !56
  %6 = load i32, ptr %4, align 4, !tbaa !56
  %7 = load ptr, ptr %3, align 8, !tbaa !6
  %8 = getelementptr inbounds nuw %struct.dt_selection_t, ptr %7, i32 0, i32 1
  store i32 %6, ptr %8, align 8, !tbaa !15
  br label %9

9:                                                ; preds = %2
  br label %10

10:                                               ; preds = %9
  %11 = load i32, ptr getelementptr inbounds nuw (%struct.darktable_t, ptr @darktable, i32 0, i32 2), align 8, !tbaa !57
  %12 = and i32 256, %11
  %13 = icmp ne i32 %12, 0
  br i1 %13, label %14, label %20

14:                                               ; preds = %10
  %15 = load i32, ptr getelementptr inbounds nuw (%struct.darktable_t, ptr @darktable, i32 0, i32 2), align 8, !tbaa !57
  %16 = xor i32 %15, -1
  %17 = and i32 0, %16
  %18 = icmp ne i32 %17, 0
  br i1 %18, label %20, label %19

19:                                               ; preds = %14
  call void (ptr, ...) @dt_print_ext(ptr noundef @.str.5, ptr noundef @.str.3, i32 noundef 255, ptr noundef @__FUNCTION__.dt_selection_select_single, ptr noundef @.str.8)
  br label %20

20:                                               ; preds = %19, %14, %10
  br label %21

21:                                               ; preds = %20
  call void @llvm.lifetime.start.p0(i64 4, ptr %5) #5
  %22 = load ptr, ptr getelementptr inbounds nuw (%struct.darktable_t, ptr @darktable, i32 0, i32 18), align 8, !tbaa !61
  %23 = call ptr @dt_database_get(ptr noundef %22)
  %24 = call i32 @sqlite3_exec(ptr noundef %23, ptr noundef @.str.8, ptr noundef null, ptr noundef null, ptr noundef null)
  store i32 %24, ptr %5, align 4, !tbaa !56
  %25 = load i32, ptr %5, align 4, !tbaa !56
  %26 = icmp ne i32 %25, 0
  br i1 %26, label %27, label %33

27:                                               ; preds = %21
  %28 = load ptr, ptr @stderr, align 8, !tbaa !62
  %29 = load ptr, ptr getelementptr inbounds nuw (%struct.darktable_t, ptr @darktable, i32 0, i32 18), align 8, !tbaa !61
  %30 = call ptr @dt_database_get(ptr noundef %29)
  %31 = call ptr @sqlite3_errmsg(ptr noundef %30)
  %32 = call i32 (ptr, ptr, ...) @fprintf(ptr noundef %28, ptr noundef @.str.7, ptr noundef @.str.3, i32 noundef 255, ptr noundef @__FUNCTION__.dt_selection_select_single, ptr noundef @.str.8, ptr noundef %31) #5
  br label %33

33:                                               ; preds = %27, %21
  call void @llvm.lifetime.end.p0(i64 4, ptr %5) #5
  br label %34

34:                                               ; preds = %33
  %35 = load ptr, ptr %3, align 8, !tbaa !6
  %36 = load i32, ptr %4, align 4, !tbaa !56
  call void @dt_selection_select(ptr noundef %35, i32 noundef %36)
  ret void
}