; Function Attrs: nounwind uwtable
define void @dt_selection_select_single(ptr noundef captures(none) initializes((8, 12)) %0, i32 noundef %1) local_unnamed_addr #1 {
  %3 = getelementptr inbounds nuw i8, ptr %0, i64 8
  store i32 %1, ptr %3, align 8, !tbaa !50
  %4 = load i32, ptr getelementptr inbounds nuw (i8, ptr @darktable, i64 8), align 8, !tbaa !54
  %5 = and i32 %4, 256
  %.not = icmp eq i32 %5, 0
  br i1 %.not, label %7, label %6

6:                                                ; preds = %2
  tail call void (ptr, ...) @dt_print_ext(ptr noundef nonnull @.str.5, ptr noundef nonnull @.str.3, i32 noundef 255, ptr noundef nonnull @__FUNCTION__.dt_selection_select_single, ptr noundef nonnull @.str.8) #8
  br label %7

7:                                                ; preds = %2, %6
  %8 = load ptr, ptr getelementptr inbounds nuw (i8, ptr @darktable, i64 136), align 8, !tbaa !56
  %9 = tail call ptr @dt_database_get(ptr noundef %8) #8
  %10 = tail call i32 @sqlite3_exec(ptr noundef %9, ptr noundef nonnull @.str.8, ptr noundef null, ptr noundef null, ptr noundef null) #8
  %.not4 = icmp eq i32 %10, 0
  br i1 %.not4, label %17, label %11

11:                                               ; preds = %7
  %12 = load ptr, ptr @stderr, align 8, !tbaa !57
  %13 = load ptr, ptr getelementptr inbounds nuw (i8, ptr @darktable, i64 136), align 8, !tbaa !56
  %14 = tail call ptr @dt_database_get(ptr noundef %13) #8
  %15 = tail call ptr @sqlite3_errmsg(ptr noundef %14) #8
  %16 = tail call i32 (ptr, ptr, ...) @fprintf(ptr noundef %12, ptr noundef nonnull @.str.7, ptr noundef nonnull @.str.3, i32 noundef 255, ptr noundef nonnull @__FUNCTION__.dt_selection_select_single, ptr noundef nonnull @.str.8, ptr noundef %15) #9
  br label %17

17:                                               ; preds = %11, %7
  tail call void @dt_selection_select(ptr noundef nonnull %0, i32 noundef %1)
  ret void
}